target datalayout = "e-m:e-p270:32:32-p271:32:32-p272:64:64-i64:64-i128:128-f80:128-n8:16:32:64-S128"
target triple = "x86_64-pc-linux-gnu"

%struct.DecoderInstance = type { i32, i32, i32, i32 }
%struct.FLAC__Frame = type { %struct.FLAC__FrameHeader, [8 x %struct.FLAC__Subframe], %struct.FLAC__FrameFooter }
%struct.FLAC__FrameHeader = type { i32, i32, i32, i32, i32, i32, %union.anon.0, i8 }
%union.anon.0 = type { i64 }
%struct.FLAC__Subframe = type { i32, %union.anon.1, i32 }
%union.anon.1 = type { %struct.FLAC__Subframe_LPC }
%struct.FLAC__Subframe_LPC = type { %struct.FLAC__EntropyCodingMethod, i32, i32, i32, [32 x i32], [32 x i64], ptr }
%struct.FLAC__EntropyCodingMethod = type { i32, %union.anon.2 }
%union.anon.2 = type { %struct.FLAC__EntropyCodingMethod_PartitionedRice }
%struct.FLAC__EntropyCodingMethod_PartitionedRice = type { i32, ptr }
%struct.FLAC__FrameFooter = type { i16 }

; Function Attrs: nounwind sspstrong uwtable
define internal i32 @write_callback_(ptr noundef %0, ptr noundef %1, ptr noundef %2, ptr noundef %3) #0 {
  %5 = alloca i32, align 4
  %6 = alloca ptr, align 8
  %7 = alloca ptr, align 8
  %8 = alloca ptr, align 8
  %9 = alloca ptr, align 8
  %10 = alloca ptr, align 8
  %11 = alloca i32, align 4
  %12 = alloca i32, align 4
  %13 = alloca i32, align 4
  %14 = alloca i32, align 4
  %15 = alloca i32, align 4
  store ptr %0, ptr %6, align 8, !tbaa !30
  store ptr %1, ptr %7, align 8, !tbaa !30
  store ptr %2, ptr %8, align 8, !tbaa !10
  store ptr %3, ptr %9, align 8, !tbaa !30
  call void @llvm.lifetime.start.p0(i64 8, ptr %10) #8
  %16 = load ptr, ptr %9, align 8, !tbaa !30
  store ptr %16, ptr %10, align 8, !tbaa !30
  call void @llvm.lifetime.start.p0(i64 4, ptr %11) #8
  %17 = load ptr, ptr %7, align 8, !tbaa !30
  %18 = getelementptr inbounds nuw %struct.FLAC__Frame, ptr %17, i32 0, i32 0
  %19 = getelementptr inbounds nuw %struct.FLAC__FrameHeader, ptr %18, i32 0, i32 4
  %20 = load i32, ptr %19, align 8, !tbaa !33
  store i32 %20, ptr %11, align 4, !tbaa !4
  call void @llvm.lifetime.start.p0(i64 4, ptr %12) #8
  %21 = load ptr, ptr %7, align 8, !tbaa !30
  %22 = getelementptr inbounds nuw %struct.FLAC__Frame, ptr %21, i32 0, i32 0
  %23 = getelementptr inbounds nuw %struct.FLAC__FrameHeader, ptr %22, i32 0, i32 2
  %24 = load i32, ptr %23, align 8, !tbaa !38
  store i32 %24, ptr %12, align 4, !tbaa !4
  call void @llvm.lifetime.start.p0(i64 4, ptr %13) #8
  %25 = load ptr, ptr %7, align 8, !tbaa !30
  %26 = getelementptr inbounds nuw %struct.FLAC__Frame, ptr %25, i32 0, i32 0
  %27 = getelementptr inbounds nuw %struct.FLAC__FrameHeader, ptr %26, i32 0, i32 1
  %28 = load i32, ptr %27, align 4, !tbaa !39
  store i32 %28, ptr %13, align 4, !tbaa !4
  call void @llvm.lifetime.start.p0(i64 4, ptr %14) #8
  %29 = load ptr, ptr %7, align 8, !tbaa !30
  %30 = getelementptr inbounds nuw %struct.FLAC__Frame, ptr %29, i32 0, i32 0
  %31 = getelementptr inbounds nuw %struct.FLAC__FrameHeader, ptr %30, i32 0, i32 0
  %32 = load i32, ptr %31, align 8, !tbaa !40
  store i32 %32, ptr %14, align 4, !tbaa !4
  %33 = load ptr, ptr %10, align 8, !tbaa !30
  %34 = getelementptr inbounds nuw %struct.DecoderInstance, ptr %33, i32 0, i32 3
  %35 = load i32, ptr %34, align 4, !tbaa !31
  %36 = icmp ne i32 %35, 0
  br i1 %36, label %74, label %37

37:                                               ; preds = %4
  %38 = load i32, ptr %12, align 4, !tbaa !4
  %39 = icmp eq i32 %38, 2
  br i1 %39, label %43, label %40

40:                                               ; preds = %37
  %41 = load i32, ptr %12, align 4, !tbaa !4
  %42 = icmp eq i32 %41, 1
  br i1 %42, label %43, label %74

43:                                               ; preds = %40, %37
  %44 = load i32, ptr %11, align 4, !tbaa !4
  %45 = load ptr, ptr %10, align 8, !tbaa !30
  %46 = getelementptr inbounds nuw %struct.DecoderInstance, ptr %45, i32 0, i32 1
  %47 = load i32, ptr %46, align 4, !tbaa !41
  %48 = icmp eq i32 %44, %47
  br i1 %48, label %49, label %74

49:                                               ; preds = %43
  %50 = load i32, ptr %12, align 4, !tbaa !4
  %51 = load ptr, ptr %10, align 8, !tbaa !30
  %52 = getelementptr inbounds nuw %struct.DecoderInstance, ptr %51, i32 0, i32 0
  %53 = load i32, ptr %52, align 4, !tbaa !42
  %54 = icmp eq i32 %50, %53
  br i1 %54, label %55, label %74

55:                                               ; preds = %49
  %56 = load i32, ptr %13, align 4, !tbaa !4
  %57 = load ptr, ptr %10, align 8, !tbaa !30
  %58 = getelementptr inbounds nuw %struct.DecoderInstance, ptr %57, i32 0, i32 2
  %59 = load i32, ptr %58, align 4, !tbaa !43
  %60 = icmp eq i32 %56, %59
  br i1 %60, label %61, label %74

61:                                               ; preds = %55
  %62 = load ptr, ptr %8, align 8, !tbaa !10
  %63 = load i32, ptr %12, align 4, !tbaa !4
  %64 = icmp eq i32 %63, 2
  %65 = zext i1 %64 to i32
  %66 = load i32, ptr %11, align 4, !tbaa !4
  %67 = load i32, ptr %14, align 4, !tbaa !4
  %68 = call i32 @grabbag__replaygain_analyze(ptr noundef %62, i32 noundef %65, i32 noundef %66, i32 noundef %67)
  %69 = icmp ne i32 %68, 0
  %70 = xor i1 %69, true
  %71 = zext i1 %70 to i32
  %72 = load ptr, ptr %10, align 8, !tbaa !30
  %73 = getelementptr inbounds nuw %struct.DecoderInstance, ptr %72, i32 0, i32 3
  store i32 %71, ptr %73, align 4, !tbaa !31
  br label %77

74:                                               ; preds = %55, %49, %43, %40, %4
  %75 = load ptr, ptr %10, align 8, !tbaa !30
  %76 = getelementptr inbounds nuw %struct.DecoderInstance, ptr %75, i32 0, i32 3
  store i32 1, ptr %76, align 4, !tbaa !31
  br label %77

77:                                               ; preds = %74, %61
  %78 = load ptr, ptr %10, align 8, !tbaa !30
  %79 = getelementptr inbounds nuw %struct.DecoderInstance, ptr %78, i32 0, i32 3
  %80 = load i32, ptr %79, align 4, !tbaa !31
  %81 = icmp ne i32 %80, 0
  br i1 %81, label %83, label %82

82:                                               ; preds = %77
  store i32 0, ptr %5, align 4
  store i32 1, ptr %15, align 4
  br label %84

83:                                               ; preds = %77
  store i32 1, ptr %5, align 4
  store i32 1, ptr %15, align 4
  br label %84

84:                                               ; preds = %83, %82
  call void @llvm.lifetime.end.p0(i64 4, ptr %14) #8
  call void @llvm.lifetime.end.p0(i64 4, ptr %13) #8
  call void @llvm.lifetime.end.p0(i64 4, ptr %12) #8
  call void @llvm.lifetime.end.p0(i64 4, ptr %11) #8
  call void @llvm.lifetime.end.p0(i64 8, ptr %10) #8
  %85 = load i32, ptr %5, align 4
  ret i32 %85
}