; Function Attrs: nounwind sspstrong uwtable
define internal range(i32 0, 2) i32 @write_callback_(ptr readnone captures(none) %0, ptr noundef readonly captures(none) %1, ptr noundef readonly captures(none) %2, ptr noundef captures(none) %3) #0 {
  %5 = getelementptr inbounds nuw i8, ptr %1, i64 16
  %6 = load i32, ptr %5, align 8, !tbaa !26
  %7 = getelementptr inbounds nuw i8, ptr %1, i64 8
  %8 = load i32, ptr %7, align 8, !tbaa !31
  %9 = getelementptr inbounds nuw i8, ptr %1, i64 4
  %10 = load i32, ptr %9, align 4, !tbaa !32
  %11 = load i32, ptr %1, align 8, !tbaa !33
  %12 = getelementptr inbounds nuw i8, ptr %3, i64 12
  %13 = load i32, ptr %12, align 4, !tbaa !24
  %.not = icmp eq i32 %13, 0
  br i1 %.not, label %14, label %.thread

14:                                               ; preds = %4
  %15 = icmp eq i32 %8, 2
  %16 = add i32 %8, -1
  %or.cond = icmp ult i32 %16, 2
  br i1 %or.cond, label %17, label %.thread

17:                                               ; preds = %14
  %18 = getelementptr inbounds nuw i8, ptr %3, i64 4
  %19 = load i32, ptr %18, align 4, !tbaa !34
  %20 = icmp eq i32 %6, %19
  br i1 %20, label %21, label %.thread

21:                                               ; preds = %17
  %22 = load i32, ptr %3, align 4, !tbaa !35
  %23 = icmp eq i32 %8, %22
  br i1 %23, label %24, label %.thread

24:                                               ; preds = %21
  %25 = getelementptr inbounds nuw i8, ptr %3, i64 8
  %26 = load i32, ptr %25, align 4, !tbaa !36
  %27 = icmp eq i32 %10, %26
  br i1 %27, label %28, label %.thread

.thread:                                          ; preds = %14, %24, %21, %17, %4
  store i32 1, ptr %12, align 4, !tbaa !24
  br label %32

28:                                               ; preds = %24
  %29 = zext i1 %15 to i32
  %30 = tail call i32 @grabbag__replaygain_analyze(ptr noundef %2, i32 noundef %29, i32 noundef %6, i32 noundef %11)
  %.fr = freeze i32 %30
  %31 = xor i32 %.fr, 1
  store i32 %31, ptr %12, align 4, !tbaa !24
  %.not24.not = icmp eq i32 %.fr, 0
  %spec.select = zext i1 %.not24.not to i32
  br label %32

32:                                               ; preds = %28, %.thread
  %33 = phi i32 [ 1, %.thread ], [ %spec.select, %28 ]
  ret i32 %33
}